target datalayout = "e-m:e-p270:32:32-p271:32:32-p272:64:64-i64:64-i128:128-f80:128-n8:16:32:64-S128"
target triple = "x86_64-pc-linux-gnu"

%"class.std::_Rb_tree" = type { %"struct.std::_Rb_tree<Yosys::RTLIL::Module *, std::pair<Yosys::RTLIL::Module *const, std::map<Yosys::RTLIL::IdString, (anonymous namespace)::dff_map_info_t>>, std::_Select1st<std::pair<Yosys::RTLIL::Module *const, std::map<Yosys::RTLIL::IdString, (anonymous namespace)::dff_map_info_t>>>, std::less<Yosys::RTLIL::Module *>>::_Rb_tree_impl" }
%"struct.std::_Rb_tree<Yosys::RTLIL::Module *, std::pair<Yosys::RTLIL::Module *const, std::map<Yosys::RTLIL::IdString, (anonymous namespace)::dff_map_info_t>>, std::_Select1st<std::pair<Yosys::RTLIL::Module *const, std::map<Yosys::RTLIL::IdString, (anonymous namespace)::dff_map_info_t>>>, std::less<Yosys::RTLIL::Module *>>::_Rb_tree_impl" = type { %"struct.std::_Rb_tree_key_compare", %"struct.std::_Rb_tree_header" }
%"struct.std::_Rb_tree_key_compare" = type { %"struct.std::less" }
%"struct.std::less" = type { i8 }
%"struct.std::_Rb_tree_header" = type { %"struct.std::_Rb_tree_node_base", i64 }
%"struct.std::_Rb_tree_node_base" = type { i32, ptr, ptr, ptr }
%"struct.std::_Rb_tree_key_compare.25" = type { %"struct.std::less.26" }
%"struct.std::less.26" = type { i8 }
%"class.std::map.78" = type { %"class.std::_Rb_tree.79" }
%"class.std::_Rb_tree.79" = type { %"struct.std::_Rb_tree<Yosys::RTLIL::IdString, std::pair<const Yosys::RTLIL::IdString, (anonymous namespace)::dff_map_info_t>, std::_Select1st<std::pair<const Yosys::RTLIL::IdString, (anonymous namespace)::dff_map_info_t>>, std::less<Yosys::RTLIL::IdString>>::_Rb_tree_impl" }
%"struct.std::_Rb_tree<Yosys::RTLIL::IdString, std::pair<const Yosys::RTLIL::IdString, (anonymous namespace)::dff_map_info_t>, std::_Select1st<std::pair<const Yosys::RTLIL::IdString, (anonymous namespace)::dff_map_info_t>>, std::less<Yosys::RTLIL::IdString>>::_Rb_tree_impl" = type { %"struct.std::_Rb_tree_key_compare.25", %"struct.std::_Rb_tree_header" }
%"struct.std::pair.153" = type { ptr, %"class.std::map.78" }
%"struct.std::_Rb_tree_node.553" = type { %"struct.std::_Rb_tree_node_base", %"struct.__gnu_cxx::__aligned_membuf.554" }
%"struct.__gnu_cxx::__aligned_membuf.554" = type { [56 x i8] }

; Function Attrs: mustprogress nounwind uwtable
define internal void @_ZNSt15__new_allocatorISt13_Rb_tree_nodeISt4pairIKN5Yosys5RTLIL8IdStringEN12_GLOBAL__N_114dff_map_info_tEEEED2Ev(ptr noundef nonnull align 1 dereferenceable(1) %0) unnamed_addr #5 align 2 {
  %2 = alloca ptr, align 8
  store ptr %0, ptr %2, align 8
  ret void
}

; Function Attrs: mustprogress nounwind uwtable
define internal void @_ZNSaISt13_Rb_tree_nodeISt4pairIKN5Yosys5RTLIL8IdStringEN12_GLOBAL__N_114dff_map_info_tEEEED2Ev(ptr noundef nonnull align 1 dereferenceable(1) %0) unnamed_addr #5 align 2 {
  %2 = alloca ptr, align 8
  store ptr %0, ptr %2, align 8
  %3 = load ptr, ptr %2, align 8
  call void @_ZNSt15__new_allocatorISt13_Rb_tree_nodeISt4pairIKN5Yosys5RTLIL8IdStringEN12_GLOBAL__N_114dff_map_info_tEEEED2Ev(ptr noundef nonnull align 1 dereferenceable(1) %3) #3
  ret void
}

; Function Attrs: mustprogress nounwind uwtable
define internal noundef ptr @_ZNKSt8_Rb_treeIN5Yosys5RTLIL8IdStringESt4pairIKS2_N12_GLOBAL__N_114dff_map_info_tEESt10_Select1stIS7_ESt4lessIS2_ESaIS7_EE9_M_mbeginEv(ptr noundef nonnull align 8 dereferenceable(48) %0) #5 align 2 {
  %2 = alloca ptr, align 8
  store ptr %0, ptr %2, align 8
  %3 = load ptr, ptr %2, align 8
  %4 = getelementptr inbounds %"class.std::_Rb_tree.79", ptr %3, i32 0, i32 0
  %5 = getelementptr inbounds i8, ptr %4, i64 8
  %6 = getelementptr inbounds %"struct.std::_Rb_tree_header", ptr %5, i32 0, i32 0
  %7 = getelementptr inbounds %"struct.std::_Rb_tree_node_base", ptr %6, i32 0, i32 1
  %8 = load ptr, ptr %7, align 8
  ret ptr %8
}

; Function Attrs: mustprogress nounwind uwtable
define internal void @_ZNSt8_Rb_treeIN5Yosys5RTLIL8IdStringESt4pairIKS2_N12_GLOBAL__N_114dff_map_info_tEESt10_Select1stIS7_ESt4lessIS2_ESaIS7_EE13_Rb_tree_implISB_Lb1EED2Ev(ptr noundef nonnull align 8 dereferenceable(48) %0) unnamed_addr #5 align 2 {
  %2 = alloca ptr, align 8
  store ptr %0, ptr %2, align 8
  %3 = load ptr, ptr %2, align 8
  call void @_ZNSaISt13_Rb_tree_nodeISt4pairIKN5Yosys5RTLIL8IdStringEN12_GLOBAL__N_114dff_map_info_tEEEED2Ev(ptr noundef nonnull align 1 dereferenceable(1) %3) #3
  ret void
}

; Function Attrs: mustprogress nounwind uwtable
define internal noundef ptr @_ZNSt8_Rb_treeIN5Yosys5RTLIL8IdStringESt4pairIKS2_N12_GLOBAL__N_114dff_map_info_tEESt10_Select1stIS7_ESt4lessIS2_ESaIS7_EE8_M_beginEv(ptr noundef nonnull align 8 dereferenceable(48) %0) #5 align 2 {
  %2 = alloca ptr, align 8
  store ptr %0, ptr %2, align 8
  %3 = load ptr, ptr %2, align 8
  %4 = call noundef ptr @_ZNKSt8_Rb_treeIN5Yosys5RTLIL8IdStringESt4pairIKS2_N12_GLOBAL__N_114dff_map_info_tEESt10_Select1stIS7_ESt4lessIS2_ESaIS7_EE9_M_mbeginEv(ptr noundef nonnull align 8 dereferenceable(48) %3) #3
  ret ptr %4
}

; Function Attrs: mustprogress nounwind uwtable
define internal void @_ZNSt8_Rb_treeIN5Yosys5RTLIL8IdStringESt4pairIKS2_N12_GLOBAL__N_114dff_map_info_tEESt10_Select1stIS7_ESt4lessIS2_ESaIS7_EED2Ev(ptr noundef nonnull align 8 dereferenceable(48) %0) unnamed_addr #5 align 2 personality ptr @__gxx_personality_v0 {
  %2 = alloca ptr, align 8
  store ptr %0, ptr %2, align 8
  %3 = load ptr, ptr %2, align 8
  %4 = call noundef ptr @_ZNSt8_Rb_treeIN5Yosys5RTLIL8IdStringESt4pairIKS2_N12_GLOBAL__N_114dff_map_info_tEESt10_Select1stIS7_ESt4lessIS2_ESaIS7_EE8_M_beginEv(ptr noundef nonnull align 8 dereferenceable(48) %3) #3
  invoke void @_ZNSt8_Rb_treeIN5Yosys5RTLIL8IdStringESt4pairIKS2_N12_GLOBAL__N_114dff_map_info_tEESt10_Select1stIS7_ESt4lessIS2_ESaIS7_EE8_M_eraseEPSt13_Rb_tree_nodeIS7_E(ptr noundef nonnull align 8 dereferenceable(48) %3, ptr noundef %4)
          to label %5 unwind label %7

5:                                                ; preds = %1
  %6 = getelementptr inbounds %"class.std::_Rb_tree.79", ptr %3, i32 0, i32 0
  call void @_ZNSt8_Rb_treeIN5Yosys5RTLIL8IdStringESt4pairIKS2_N12_GLOBAL__N_114dff_map_info_tEESt10_Select1stIS7_ESt4lessIS2_ESaIS7_EE13_Rb_tree_implISB_Lb1EED2Ev(ptr noundef nonnull align 8 dereferenceable(48) %6) #3
  ret void

7:                                                ; preds = %1
  %8 = landingpad { ptr, i32 }
          catch ptr null
  %9 = extractvalue { ptr, i32 } %8, 0
  call void @__clang_call_terminate(ptr %9) #17
  unreachable
}

; Function Attrs: mustprogress nounwind uwtable
define internal void @_ZNSt3mapIN5Yosys5RTLIL8IdStringEN12_GLOBAL__N_114dff_map_info_tESt4lessIS2_ESaISt4pairIKS2_S4_EEED2Ev(ptr noundef nonnull align 8 dereferenceable(48) %0) unnamed_addr #5 align 2 {
  %2 = alloca ptr, align 8
  store ptr %0, ptr %2, align 8
  %3 = load ptr, ptr %2, align 8
  %4 = getelementptr inbounds %"class.std::map.78", ptr %3, i32 0, i32 0
  call void @_ZNSt8_Rb_treeIN5Yosys5RTLIL8IdStringESt4pairIKS2_N12_GLOBAL__N_114dff_map_info_tEESt10_Select1stIS7_ESt4lessIS2_ESaIS7_EED2Ev(ptr noundef nonnull align 8 dereferenceable(48) %4) #3
  ret void
}

; Function Attrs: mustprogress nounwind uwtable
define internal void @_ZNSt4pairIKPN5Yosys5RTLIL6ModuleESt3mapINS1_8IdStringEN12_GLOBAL__N_114dff_map_info_tESt4lessIS6_ESaIS_IKS6_S8_EEEED2Ev(ptr noundef nonnull align 8 dereferenceable(56) %0) unnamed_addr #5 align 2 {
  %2 = alloca ptr, align 8
  store ptr %0, ptr %2, align 8
  %3 = load ptr, ptr %2, align 8
  %4 = getelementptr inbounds %"struct.std::pair.153", ptr %3, i32 0, i32 1
  call void @_ZNSt3mapIN5Yosys5RTLIL8IdStringEN12_GLOBAL__N_114dff_map_info_tESt4lessIS2_ESaISt4pairIKS2_S4_EEED2Ev(ptr noundef nonnull align 8 dereferenceable(48) %4) #3
  ret void
}

; Function Attrs: mustprogress nounwind uwtable
define internal noundef ptr @_ZN9__gnu_cxx16__aligned_membufISt4pairIKPN5Yosys5RTLIL6ModuleESt3mapINS3_8IdStringEN12_GLOBAL__N_114dff_map_info_tESt4lessIS8_ESaIS1_IKS8_SA_EEEEE7_M_addrEv(ptr noundef nonnull align 8 dereferenceable(56) %0) #5 align 2 {
  %2 = alloca ptr, align 8
  store ptr %0, ptr %2, align 8
  %3 = load ptr, ptr %2, align 8
  %4 = getelementptr inbounds %"struct.__gnu_cxx::__aligned_membuf.554", ptr %3, i32 0, i32 0
  ret ptr %4
}

; Function Attrs: mustprogress nounwind uwtable
define internal void @_ZNSt15__new_allocatorISt13_Rb_tree_nodeISt4pairIKPN5Yosys5RTLIL6ModuleESt3mapINS3_8IdStringEN12_GLOBAL__N_114dff_map_info_tESt4lessIS8_ESaIS1_IKS8_SA_EEEEEE10deallocateEPSI_m(ptr noundef nonnull align 1 dereferenceable(1) %0, ptr noundef %1, i64 noundef %2) #5 align 2 {
  %4 = alloca ptr, align 8
  %5 = alloca ptr, align 8
  %6 = alloca i64, align 8
  store ptr %0, ptr %4, align 8
  store ptr %1, ptr %5, align 8
  store i64 %2, ptr %6, align 8
  %7 = load ptr, ptr %5, align 8
  call void @_ZdlPv(ptr noundef %7) #15
  ret void
}

; Function Attrs: mustprogress nounwind uwtable
define internal void @_ZNSt15__new_allocatorISt13_Rb_tree_nodeISt4pairIKPN5Yosys5RTLIL6ModuleESt3mapINS3_8IdStringEN12_GLOBAL__N_114dff_map_info_tESt4lessIS8_ESaIS1_IKS8_SA_EEEEEE7destroyISH_EEvPT_(ptr noundef nonnull align 1 dereferenceable(1) %0, ptr noundef %1) #5 align 2 {
  %3 = alloca ptr, align 8
  %4 = alloca ptr, align 8
  store ptr %0, ptr %3, align 8
  store ptr %1, ptr %4, align 8
  %5 = load ptr, ptr %4, align 8
  call void @_ZNSt4pairIKPN5Yosys5RTLIL6ModuleESt3mapINS1_8IdStringEN12_GLOBAL__N_114dff_map_info_tESt4lessIS6_ESaIS_IKS6_S8_EEEED2Ev(ptr noundef nonnull align 8 dereferenceable(56) %5) #3
  ret void
}

; Function Attrs: mustprogress nounwind uwtable
define internal noundef ptr @_ZN9__gnu_cxx16__aligned_membufISt4pairIKPN5Yosys5RTLIL6ModuleESt3mapINS3_8IdStringEN12_GLOBAL__N_114dff_map_info_tESt4lessIS8_ESaIS1_IKS8_SA_EEEEE6_M_ptrEv(ptr noundef nonnull align 8 dereferenceable(56) %0) #5 align 2 {
  %2 = alloca ptr, align 8
  store ptr %0, ptr %2, align 8
  %3 = load ptr, ptr %2, align 8
  %4 = call noundef ptr @_ZN9__gnu_cxx16__aligned_membufISt4pairIKPN5Yosys5RTLIL6ModuleESt3mapINS3_8IdStringEN12_GLOBAL__N_114dff_map_info_tESt4lessIS8_ESaIS1_IKS8_SA_EEEEE7_M_addrEv(ptr noundef nonnull align 8 dereferenceable(56) %3) #3
  ret ptr %4
}

; Function Attrs: noreturn nounwind uwtable
define linkonce_odr hidden void @__clang_call_terminate(ptr noundef %0) #10 comdat {
  %2 = call ptr @__cxa_begin_catch(ptr %0) #3
  call void @_ZSt9terminatev() #17
  unreachable
}

; Function Attrs: mustprogress uwtable
define internal void @_ZNSt16allocator_traitsISaISt13_Rb_tree_nodeISt4pairIKPN5Yosys5RTLIL6ModuleESt3mapINS3_8IdStringEN12_GLOBAL__N_114dff_map_info_tESt4lessIS8_ESaIS1_IKS8_SA_EEEEEEE10deallocateERSJ_PSI_m(ptr noundef nonnull align 1 dereferenceable(1) %0, ptr noundef %1, i64 noundef %2) #4 align 2 {
  %4 = alloca ptr, align 8
  %5 = alloca ptr, align 8
  %6 = alloca i64, align 8
  store ptr %0, ptr %4, align 8
  store ptr %1, ptr %5, align 8
  store i64 %2, ptr %6, align 8
  %7 = load ptr, ptr %4, align 8
  %8 = load ptr, ptr %5, align 8
  %9 = load i64, ptr %6, align 8
  call void @_ZNSt15__new_allocatorISt13_Rb_tree_nodeISt4pairIKPN5Yosys5RTLIL6ModuleESt3mapINS3_8IdStringEN12_GLOBAL__N_114dff_map_info_tESt4lessIS8_ESaIS1_IKS8_SA_EEEEEE10deallocateEPSI_m(ptr noundef nonnull align 1 dereferenceable(1) %7, ptr noundef %8, i64 noundef %9)
  ret void
}

; Function Attrs: mustprogress nounwind uwtable
define internal void @_ZNSt16allocator_traitsISaISt13_Rb_tree_nodeISt4pairIKPN5Yosys5RTLIL6ModuleESt3mapINS3_8IdStringEN12_GLOBAL__N_114dff_map_info_tESt4lessIS8_ESaIS1_IKS8_SA_EEEEEEE7destroyISH_EEvRSJ_PT_(ptr noundef nonnull align 1 dereferenceable(1) %0, ptr noundef %1) #5 align 2 {
  %3 = alloca ptr, align 8
  %4 = alloca ptr, align 8
  store ptr %0, ptr %3, align 8
  store ptr %1, ptr %4, align 8
  %5 = load ptr, ptr %3, align 8
  %6 = load ptr, ptr %4, align 8
  call void @_ZNSt15__new_allocatorISt13_Rb_tree_nodeISt4pairIKPN5Yosys5RTLIL6ModuleESt3mapINS3_8IdStringEN12_GLOBAL__N_114dff_map_info_tESt4lessIS8_ESaIS1_IKS8_SA_EEEEEE7destroyISH_EEvPT_(ptr noundef nonnull align 1 dereferenceable(1) %5, ptr noundef %6) #3
  ret void
}

; Function Attrs: mustprogress nounwind uwtable
define internal noundef ptr @_ZNSt13_Rb_tree_nodeISt4pairIKPN5Yosys5RTLIL6ModuleESt3mapINS2_8IdStringEN12_GLOBAL__N_114dff_map_info_tESt4lessIS7_ESaIS0_IKS7_S9_EEEEE9_M_valptrEv(ptr noundef nonnull align 8 dereferenceable(88) %0) #5 align 2 {
  %2 = alloca ptr, align 8
  store ptr %0, ptr %2, align 8
  %3 = load ptr, ptr %2, align 8
  %4 = getelementptr inbounds %"struct.std::_Rb_tree_node.553", ptr %3, i32 0, i32 1
  %5 = call noundef ptr @_ZN9__gnu_cxx16__aligned_membufISt4pairIKPN5Yosys5RTLIL6ModuleESt3mapINS3_8IdStringEN12_GLOBAL__N_114dff_map_info_tESt4lessIS8_ESaIS1_IKS8_SA_EEEEE6_M_ptrEv(ptr noundef nonnull align 8 dereferenceable(56) %4) #3
  ret ptr %5
}

; Function Attrs: mustprogress nounwind uwtable
define internal noundef nonnull align 1 dereferenceable(1) ptr @_ZNSt8_Rb_treeIPN5Yosys5RTLIL6ModuleESt4pairIKS3_St3mapINS1_8IdStringEN12_GLOBAL__N_114dff_map_info_tESt4lessIS7_ESaIS4_IKS7_S9_EEEESt10_Select1stISG_ESA_IS3_ESaISG_EE21_M_get_Node_allocatorEv(ptr noundef nonnull align 8 dereferenceable(48) %0) #5 align 2 {
  %2 = alloca ptr, align 8
  store ptr %0, ptr %2, align 8
  %3 = load ptr, ptr %2, align 8
  %4 = getelementptr inbounds %"class.std::_Rb_tree", ptr %3, i32 0, i32 0
  ret ptr %4
}

; Function Attrs: mustprogress nounwind uwtable
define internal void @_ZNSt8_Rb_treeIPN5Yosys5RTLIL6ModuleESt4pairIKS3_St3mapINS1_8IdStringEN12_GLOBAL__N_114dff_map_info_tESt4lessIS7_ESaIS4_IKS7_S9_EEEESt10_Select1stISG_ESA_IS3_ESaISG_EE11_M_put_nodeEPSt13_Rb_tree_nodeISG_E(ptr noundef nonnull align 8 dereferenceable(48) %0, ptr noundef %1) #5 align 2 personality ptr @__gxx_personality_v0 {
  %3 = alloca ptr, align 8
  %4 = alloca ptr, align 8
  store ptr %0, ptr %3, align 8
  store ptr %1, ptr %4, align 8
  %5 = load ptr, ptr %3, align 8
  %6 = call noundef nonnull align 1 dereferenceable(1) ptr @_ZNSt8_Rb_treeIPN5Yosys5RTLIL6ModuleESt4pairIKS3_St3mapINS1_8IdStringEN12_GLOBAL__N_114dff_map_info_tESt4lessIS7_ESaIS4_IKS7_S9_EEEESt10_Select1stISG_ESA_IS3_ESaISG_EE21_M_get_Node_allocatorEv(ptr noundef nonnull align 8 dereferenceable(48) %5) #3
  %7 = load ptr, ptr %4, align 8
  invoke void @_ZNSt16allocator_traitsISaISt13_Rb_tree_nodeISt4pairIKPN5Yosys5RTLIL6ModuleESt3mapINS3_8IdStringEN12_GLOBAL__N_114dff_map_info_tESt4lessIS8_ESaIS1_IKS8_SA_EEEEEEE10deallocateERSJ_PSI_m(ptr noundef nonnull align 1 dereferenceable(1) %6, ptr noundef %7, i64 noundef 1)
          to label %8 unwind label %9

8:                                                ; preds = %2
  ret void

9:                                                ; preds = %2
  %10 = landingpad { ptr, i32 }
          catch ptr null
  %11 = extractvalue { ptr, i32 } %10, 0
  call void @__clang_call_terminate(ptr %11) #17
  unreachable
}

; Function Attrs: mustprogress nounwind uwtable
define internal void @_ZNSt8_Rb_treeIPN5Yosys5RTLIL6ModuleESt4pairIKS3_St3mapINS1_8IdStringEN12_GLOBAL__N_114dff_map_info_tESt4lessIS7_ESaIS4_IKS7_S9_EEEESt10_Select1stISG_ESA_IS3_ESaISG_EE15_M_destroy_nodeEPSt13_Rb_tree_nodeISG_E(ptr noundef nonnull align 8 dereferenceable(48) %0, ptr noundef %1) #5 align 2 {
  %3 = alloca ptr, align 8
  %4 = alloca ptr, align 8
  store ptr %0, ptr %3, align 8
  store ptr %1, ptr %4, align 8
  %5 = load ptr, ptr %3, align 8
  %6 = call noundef nonnull align 1 dereferenceable(1) ptr @_ZNSt8_Rb_treeIPN5Yosys5RTLIL6ModuleESt4pairIKS3_St3mapINS1_8IdStringEN12_GLOBAL__N_114dff_map_info_tESt4lessIS7_ESaIS4_IKS7_S9_EEEESt10_Select1stISG_ESA_IS3_ESaISG_EE21_M_get_Node_allocatorEv(ptr noundef nonnull align 8 dereferenceable(48) %5) #3
  %7 = load ptr, ptr %4, align 8
  %8 = call noundef ptr @_ZNSt13_Rb_tree_nodeISt4pairIKPN5Yosys5RTLIL6ModuleESt3mapINS2_8IdStringEN12_GLOBAL__N_114dff_map_info_tESt4lessIS7_ESaIS0_IKS7_S9_EEEEE9_M_valptrEv(ptr noundef nonnull align 8 dereferenceable(88) %7)
  call void @_ZNSt16allocator_traitsISaISt13_Rb_tree_nodeISt4pairIKPN5Yosys5RTLIL6ModuleESt3mapINS3_8IdStringEN12_GLOBAL__N_114dff_map_info_tESt4lessIS8_ESaIS1_IKS8_SA_EEEEEEE7destroyISH_EEvRSJ_PT_(ptr noundef nonnull align 1 dereferenceable(1) %6, ptr noundef %8) #3
  ret void
}

; Function Attrs: mustprogress nounwind uwtable
define internal void @_ZNSt8_Rb_treeIPN5Yosys5RTLIL6ModuleESt4pairIKS3_St3mapINS1_8IdStringEN12_GLOBAL__N_114dff_map_info_tESt4lessIS7_ESaIS4_IKS7_S9_EEEESt10_Select1stISG_ESA_IS3_ESaISG_EE12_M_drop_nodeEPSt13_Rb_tree_nodeISG_E(ptr noundef nonnull align 8 dereferenceable(48) %0, ptr noundef %1) #5 align 2 {
  %3 = alloca ptr, align 8
  %4 = alloca ptr, align 8
  store ptr %0, ptr %3, align 8
  store ptr %1, ptr %4, align 8
  %5 = load ptr, ptr %3, align 8
  %6 = load ptr, ptr %4, align 8
  call void @_ZNSt8_Rb_treeIPN5Yosys5RTLIL6ModuleESt4pairIKS3_St3mapINS1_8IdStringEN12_GLOBAL__N_114dff_map_info_tESt4lessIS7_ESaIS4_IKS7_S9_EEEESt10_Select1stISG_ESA_IS3_ESaISG_EE15_M_destroy_nodeEPSt13_Rb_tree_nodeISG_E(ptr noundef nonnull align 8 dereferenceable(48) %5, ptr noundef %6) #3
  %7 = load ptr, ptr %4, align 8
  call void @_ZNSt8_Rb_treeIPN5Yosys5RTLIL6ModuleESt4pairIKS3_St3mapINS1_8IdStringEN12_GLOBAL__N_114dff_map_info_tESt4lessIS7_ESaIS4_IKS7_S9_EEEESt10_Select1stISG_ESA_IS3_ESaISG_EE11_M_put_nodeEPSt13_Rb_tree_nodeISG_E(ptr noundef nonnull align 8 dereferenceable(48) %5, ptr noundef %7) #3
  ret void
}

; Function Attrs: mustprogress nounwind uwtable
define internal noundef ptr @_ZNSt8_Rb_treeIPN5Yosys5RTLIL6ModuleESt4pairIKS3_St3mapINS1_8IdStringEN12_GLOBAL__N_114dff_map_info_tESt4lessIS7_ESaIS4_IKS7_S9_EEEESt10_Select1stISG_ESA_IS3_ESaISG_EE7_S_leftEPSt18_Rb_tree_node_base(ptr noundef %0) #5 align 2 {
  %2 = alloca ptr, align 8
  store ptr %0, ptr %2, align 8
  %3 = load ptr, ptr %2, align 8
  %4 = getelementptr inbounds %"struct.std::_Rb_tree_node_base", ptr %3, i32 0, i32 2
  %5 = load ptr, ptr %4, align 8
  ret ptr %5
}

; Function Attrs: mustprogress nounwind uwtable
define internal noundef ptr @_ZNSt8_Rb_treeIPN5Yosys5RTLIL6ModuleESt4pairIKS3_St3mapINS1_8IdStringEN12_GLOBAL__N_114dff_map_info_tESt4lessIS7_ESaIS4_IKS7_S9_EEEESt10_Select1stISG_ESA_IS3_ESaISG_EE8_S_rightEPSt18_Rb_tree_node_base(ptr noundef %0) #5 align 2 {
  %2 = alloca ptr, align 8
  store ptr %0, ptr %2, align 8
  %3 = load ptr, ptr %2, align 8
  %4 = getelementptr inbounds %"struct.std::_Rb_tree_node_base", ptr %3, i32 0, i32 3
  %5 = load ptr, ptr %4, align 8
  ret ptr %5
}

; Function Attrs: mustprogress uwtable
define internal void @_ZNSt8_Rb_treeIPN5Yosys5RTLIL6ModuleESt4pairIKS3_St3mapINS1_8IdStringEN12_GLOBAL__N_114dff_map_info_tESt4lessIS7_ESaIS4_IKS7_S9_EEEESt10_Select1stISG_ESA_IS3_ESaISG_EE8_M_eraseEPSt13_Rb_tree_nodeISG_E(ptr noundef nonnull align 8 dereferenceable(48) %0, ptr noundef %1) #4 align 2 {
  %3 = alloca ptr, align 8
  %4 = alloca ptr, align 8
  %5 = alloca ptr, align 8
  store ptr %0, ptr %3, align 8
  store ptr %1, ptr %4, align 8
  %6 = load ptr, ptr %3, align 8
  br label %7

7:                                                ; preds = %10, %2
  %8 = load ptr, ptr %4, align 8
  %9 = icmp ne ptr %8, null
  br i1 %9, label %10, label %17

10:                                               ; preds = %7
  %11 = load ptr, ptr %4, align 8
  %12 = call noundef ptr @_ZNSt8_Rb_treeIPN5Yosys5RTLIL6ModuleESt4pairIKS3_St3mapINS1_8IdStringEN12_GLOBAL__N_114dff_map_info_tESt4lessIS7_ESaIS4_IKS7_S9_EEEESt10_Select1stISG_ESA_IS3_ESaISG_EE8_S_rightEPSt18_Rb_tree_node_base(ptr noundef %11) #3
  call void @_ZNSt8_Rb_treeIPN5Yosys5RTLIL6ModuleESt4pairIKS3_St3mapINS1_8IdStringEN12_GLOBAL__N_114dff_map_info_tESt4lessIS7_ESaIS4_IKS7_S9_EEEESt10_Select1stISG_ESA_IS3_ESaISG_EE8_M_eraseEPSt13_Rb_tree_nodeISG_E(ptr noundef nonnull align 8 dereferenceable(48) %6, ptr noundef %12)
  %13 = load ptr, ptr %4, align 8
  %14 = call noundef ptr @_ZNSt8_Rb_treeIPN5Yosys5RTLIL6ModuleESt4pairIKS3_St3mapINS1_8IdStringEN12_GLOBAL__N_114dff_map_info_tESt4lessIS7_ESaIS4_IKS7_S9_EEEESt10_Select1stISG_ESA_IS3_ESaISG_EE7_S_leftEPSt18_Rb_tree_node_base(ptr noundef %13) #3
  store ptr %14, ptr %5, align 8
  %15 = load ptr, ptr %4, align 8
  call void @_ZNSt8_Rb_treeIPN5Yosys5RTLIL6ModuleESt4pairIKS3_St3mapINS1_8IdStringEN12_GLOBAL__N_114dff_map_info_tESt4lessIS7_ESaIS4_IKS7_S9_EEEESt10_Select1stISG_ESA_IS3_ESaISG_EE12_M_drop_nodeEPSt13_Rb_tree_nodeISG_E(ptr noundef nonnull align 8 dereferenceable(48) %6, ptr noundef %15) #3
  %16 = load ptr, ptr %5, align 8
  store ptr %16, ptr %4, align 8
  br label %7, !llvm.loop !98

17:                                               ; preds = %7
  ret void
}