; Function Attrs: mustprogress nounwind uwtable
define internal fastcc void @_ZNSt8_Rb_treeIPN5Yosys5RTLIL6ModuleESt4pairIKS3_St3mapINS1_8IdStringEN12_GLOBAL__N_114dff_map_info_tESt4lessIS7_ESaIS4_IKS7_S9_EEEESt10_Select1stISG_ESA_IS3_ESaISG_EE8_M_eraseEPSt13_Rb_tree_nodeISG_E(ptr noundef %0) unnamed_addr #3 align 2 personality ptr @__gxx_personality_v0 {
  %.not7 = icmp eq ptr %0, null
  br i1 %.not7, label %._crit_edge, label %.lr.ph

.lr.ph:                                           ; preds = %1, %.lr.ph
  %.08 = phi ptr [ %.0.val, %.lr.ph ], [ %0, %1 ]
  %2 = getelementptr i8, ptr %.08, i64 24
  %.0.val6 = load ptr, ptr %2, align 8
  tail call fastcc void @_ZNSt8_Rb_treeIPN5Yosys5RTLIL6ModuleESt4pairIKS3_St3mapINS1_8IdStringEN12_GLOBAL__N_114dff_map_info_tESt4lessIS7_ESaIS4_IKS7_S9_EEEESt10_Select1stISG_ESA_IS3_ESaISG_EE8_M_eraseEPSt13_Rb_tree_nodeISG_E(ptr noundef %.0.val6)
  %3 = getelementptr i8, ptr %.08, i64 16
  %.0.val = load ptr, ptr %3, align 8
  %4 = getelementptr inbounds i8, ptr %.08, i64 56
  %.val.i.i.i.i.i.i.i = load ptr, ptr %4, align 8
  tail call fastcc void @_ZNSt8_Rb_treeIN5Yosys5RTLIL8IdStringESt4pairIKS2_N12_GLOBAL__N_114dff_map_info_tEESt10_Select1stIS7_ESt4lessIS2_ESaIS7_EE8_M_eraseEPSt13_Rb_tree_nodeIS7_E(ptr noundef %.val.i.i.i.i.i.i.i)
  tail call void @_ZdlPv(ptr noundef nonnull %.08) #24
  %.not = icmp eq ptr %.0.val, null
  br i1 %.not, label %._crit_edge, label %.lr.ph, !llvm.loop !710

._crit_edge:                                      ; preds = %.lr.ph, %1
  ret void
}